target datalayout = "e-m:e-p270:32:32-p271:32:32-p272:64:64-i64:64-i128:128-f80:128-n8:16:32:64-S128"
target triple = "x86_64-pc-linux-gnu"

%struct.repository = type { ptr, ptr, ptr, ptr, ptr, %struct.strmap, %struct.strmap, %struct.repo_path_cache, ptr, ptr, ptr, ptr, %struct.repo_settings, ptr, ptr, ptr, ptr, ptr, ptr, i32, i32, i32, ptr, ptr, i32, i32, i8 }
%struct.strmap = type { %struct.hashmap, ptr, i8 }
%struct.hashmap = type { ptr, ptr, ptr, i32, i32, i32, i32, i8 }
%struct.repo_path_cache = type { ptr, ptr, ptr, ptr, ptr, ptr, ptr }
%struct.repo_settings = type { i32, i32, i32, i32, i32, i32, i32, i32, i32, i32, i32, i32, ptr, i32, i32, i32, i32, i32, i32, i32, i64, i64, i64 }
%struct.fsmonitor_settings = type { i32, i32, ptr }

; Function Attrs: nounwind uwtable
define internal ptr @alloc_settings() #0 {
  %1 = alloca ptr, align 8
  call void @llvm.lifetime.start.p0(i64 8, ptr %1) #7
  %2 = call ptr @xcalloc(i64 noundef 1, i64 noundef 16)
  store ptr %2, ptr %1, align 8, !tbaa !38
  %3 = load ptr, ptr %1, align 8, !tbaa !38
  %4 = getelementptr inbounds nuw %struct.fsmonitor_settings, ptr %3, i32 0, i32 0
  store i32 0, ptr %4, align 8, !tbaa !30
  %5 = load ptr, ptr %1, align 8, !tbaa !38
  %6 = getelementptr inbounds nuw %struct.fsmonitor_settings, ptr %5, i32 0, i32 1
  store i32 0, ptr %6, align 4, !tbaa !36
  %7 = load ptr, ptr %1, align 8, !tbaa !38
  call void @llvm.lifetime.end.p0(i64 8, ptr %1) #7
  ret ptr %7
}

; Function Attrs: nounwind uwtable
define dso_local void @fsm_settings__set_incompatible(ptr noundef %0, i32 noundef %1) #0 {
  %3 = alloca ptr, align 8
  %4 = alloca i32, align 4
  store ptr %0, ptr %3, align 8, !tbaa !4
  store i32 %1, ptr %4, align 4, !tbaa !33
  %5 = load ptr, ptr %3, align 8, !tbaa !4
  %6 = getelementptr inbounds nuw %struct.repository, ptr %5, i32 0, i32 12
  %7 = getelementptr inbounds nuw %struct.repo_settings, ptr %6, i32 0, i32 12
  %8 = load ptr, ptr %7, align 8, !tbaa !9
  %9 = icmp ne ptr %8, null
  br i1 %9, label %15, label %10

10:                                               ; preds = %2
  %11 = call ptr @alloc_settings()
  %12 = load ptr, ptr %3, align 8, !tbaa !4
  %13 = getelementptr inbounds nuw %struct.repository, ptr %12, i32 0, i32 12
  %14 = getelementptr inbounds nuw %struct.repo_settings, ptr %13, i32 0, i32 12
  store ptr %11, ptr %14, align 8, !tbaa !9
  br label %15

15:                                               ; preds = %10, %2
  %16 = load ptr, ptr %3, align 8, !tbaa !4
  %17 = getelementptr inbounds nuw %struct.repository, ptr %16, i32 0, i32 12
  %18 = getelementptr inbounds nuw %struct.repo_settings, ptr %17, i32 0, i32 12
  %19 = load ptr, ptr %18, align 8, !tbaa !9
  %20 = getelementptr inbounds nuw %struct.fsmonitor_settings, ptr %19, i32 0, i32 0
  store i32 -1, ptr %20, align 8, !tbaa !30
  %21 = load i32, ptr %4, align 4, !tbaa !33
  %22 = load ptr, ptr %3, align 8, !tbaa !4
  %23 = getelementptr inbounds nuw %struct.repository, ptr %22, i32 0, i32 12
  %24 = getelementptr inbounds nuw %struct.repo_settings, ptr %23, i32 0, i32 12
  %25 = load ptr, ptr %24, align 8, !tbaa !9
  %26 = getelementptr inbounds nuw %struct.fsmonitor_settings, ptr %25, i32 0, i32 1
  store i32 %21, ptr %26, align 4, !tbaa !36
  br label %27

27:                                               ; preds = %15
  %28 = load ptr, ptr %3, align 8, !tbaa !4
  %29 = getelementptr inbounds nuw %struct.repository, ptr %28, i32 0, i32 12
  %30 = getelementptr inbounds nuw %struct.repo_settings, ptr %29, i32 0, i32 12
  %31 = load ptr, ptr %30, align 8, !tbaa !9
  %32 = getelementptr inbounds nuw %struct.fsmonitor_settings, ptr %31, i32 0, i32 2
  %33 = load ptr, ptr %32, align 8, !tbaa !35
  call void @free(ptr noundef %33) #7
  %34 = load ptr, ptr %3, align 8, !tbaa !4
  %35 = getelementptr inbounds nuw %struct.repository, ptr %34, i32 0, i32 12
  %36 = getelementptr inbounds nuw %struct.repo_settings, ptr %35, i32 0, i32 12
  %37 = load ptr, ptr %36, align 8, !tbaa !9
  %38 = getelementptr inbounds nuw %struct.fsmonitor_settings, ptr %37, i32 0, i32 2
  store ptr null, ptr %38, align 8, !tbaa !35
  br label %39

39:                                               ; preds = %27
  ret void
}