; Function Attrs: nounwind uwtable
define dso_local void @fsm_settings__set_incompatible(ptr noundef captures(none) %0, i32 noundef %1) local_unnamed_addr #0 {
  %3 = getelementptr inbounds nuw i8, ptr %0, i64 304
  %4 = load ptr, ptr %3, align 8, !tbaa !4
  %.not = icmp eq ptr %4, null
  br i1 %.not, label %5, label %8

5:                                                ; preds = %2
  %6 = tail call noundef ptr @xcalloc(i64 noundef 1, i64 noundef 16) #9
  store i32 0, ptr %6, align 8, !tbaa !28
  %7 = getelementptr inbounds nuw i8, ptr %6, i64 4
  store i32 0, ptr %7, align 4, !tbaa !33
  store ptr %6, ptr %3, align 8, !tbaa !4
  br label %8

8:                                                ; preds = %5, %2
  %9 = phi ptr [ %6, %5 ], [ %4, %2 ]
  store i32 -1, ptr %9, align 8, !tbaa !28
  %10 = getelementptr inbounds nuw i8, ptr %9, i64 4
  store i32 %1, ptr %10, align 4, !tbaa !33
  %11 = getelementptr inbounds nuw i8, ptr %9, i64 8
  %12 = load ptr, ptr %11, align 8, !tbaa !34
  tail call void @free(ptr noundef %12) #9
  %13 = load ptr, ptr %3, align 8, !tbaa !4
  %14 = getelementptr inbounds nuw i8, ptr %13, i64 8
  store ptr null, ptr %14, align 8, !tbaa !34
  ret void
}